target datalayout = "e-m:e-p270:32:32-p271:32:32-p272:64:64-i64:64-i128:128-f80:128-n8:16:32:64-S128"
target triple = "x86_64-pc-linux-gnu"

%struct.Gia_ManTer_t_ = type { ptr, i32, i32, ptr, ptr, ptr, ptr, ptr, ptr, i32, ptr, ptr, ptr, ptr }
%struct.Vec_Int_t_ = type { i32, i32, ptr }
%struct.Vec_Ptr_t_ = type { i32, i32, ptr }

; Function Attrs: nounwind uwtable
define internal void @Vec_PtrFree(ptr noundef %0) #0 {
  %2 = alloca ptr, align 8
  store ptr %0, ptr %2, align 8
  %3 = load ptr, ptr %2, align 8
  %4 = getelementptr inbounds %struct.Vec_Ptr_t_, ptr %3, i32 0, i32 2
  %5 = load ptr, ptr %4, align 8
  %6 = icmp ne ptr %5, null
  br i1 %6, label %7, label %13

7:                                                ; preds = %1
  %8 = load ptr, ptr %2, align 8
  %9 = getelementptr inbounds %struct.Vec_Ptr_t_, ptr %8, i32 0, i32 2
  %10 = load ptr, ptr %9, align 8
  call void @free(ptr noundef %10) #11
  %11 = load ptr, ptr %2, align 8
  %12 = getelementptr inbounds %struct.Vec_Ptr_t_, ptr %11, i32 0, i32 2
  store ptr null, ptr %12, align 8
  br label %14

13:                                               ; preds = %1
  br label %14

14:                                               ; preds = %13, %7
  %15 = load ptr, ptr %2, align 8
  %16 = icmp ne ptr %15, null
  br i1 %16, label %17, label %19

17:                                               ; preds = %14
  %18 = load ptr, ptr %2, align 8
  call void @free(ptr noundef %18) #11
  store ptr null, ptr %2, align 8
  br label %20

19:                                               ; preds = %14
  br label %20

20:                                               ; preds = %19, %17
  ret void
}

; Function Attrs: nounwind uwtable
define internal ptr @Vec_PtrEntry(ptr noundef %0, i32 noundef %1) #0 {
  %3 = alloca ptr, align 8
  %4 = alloca i32, align 4
  store ptr %0, ptr %3, align 8
  store i32 %1, ptr %4, align 4
  %5 = load ptr, ptr %3, align 8
  %6 = getelementptr inbounds %struct.Vec_Ptr_t_, ptr %5, i32 0, i32 2
  %7 = load ptr, ptr %6, align 8
  %8 = load i32, ptr %4, align 4
  %9 = sext i32 %8 to i64
  %10 = getelementptr inbounds ptr, ptr %7, i64 %9
  %11 = load ptr, ptr %10, align 8
  ret ptr %11
}

; Function Attrs: nounwind uwtable
define internal i32 @Vec_PtrSize(ptr noundef %0) #0 {
  %2 = alloca ptr, align 8
  store ptr %0, ptr %2, align 8
  %3 = load ptr, ptr %2, align 8
  %4 = getelementptr inbounds %struct.Vec_Ptr_t_, ptr %3, i32 0, i32 1
  %5 = load i32, ptr %4, align 4
  ret i32 %5
}

; Function Attrs: nounwind uwtable
define internal void @Vec_IntFree(ptr noundef %0) #0 {
  %2 = alloca ptr, align 8
  store ptr %0, ptr %2, align 8
  %3 = load ptr, ptr %2, align 8
  %4 = getelementptr inbounds %struct.Vec_Int_t_, ptr %3, i32 0, i32 2
  %5 = load ptr, ptr %4, align 8
  %6 = icmp ne ptr %5, null
  br i1 %6, label %7, label %13

7:                                                ; preds = %1
  %8 = load ptr, ptr %2, align 8
  %9 = getelementptr inbounds %struct.Vec_Int_t_, ptr %8, i32 0, i32 2
  %10 = load ptr, ptr %9, align 8
  call void @free(ptr noundef %10) #11
  %11 = load ptr, ptr %2, align 8
  %12 = getelementptr inbounds %struct.Vec_Int_t_, ptr %11, i32 0, i32 2
  store ptr null, ptr %12, align 8
  br label %14

13:                                               ; preds = %1
  br label %14

14:                                               ; preds = %13, %7
  %15 = load ptr, ptr %2, align 8
  %16 = icmp ne ptr %15, null
  br i1 %16, label %17, label %19

17:                                               ; preds = %14
  %18 = load ptr, ptr %2, align 8
  call void @free(ptr noundef %18) #11
  store ptr null, ptr %2, align 8
  br label %20

19:                                               ; preds = %14
  br label %20

20:                                               ; preds = %19, %17
  ret void
}

; Function Attrs: nounwind uwtable
define void @Gia_ManTerStatesFree(ptr noundef %0) #0 {
  %2 = alloca ptr, align 8
  %3 = alloca ptr, align 8
  %4 = alloca i32, align 4
  store ptr %0, ptr %2, align 8
  store i32 0, ptr %4, align 4
  br label %5

5:                                                ; preds = %23, %1
  %6 = load i32, ptr %4, align 4
  %7 = load ptr, ptr %2, align 8
  %8 = call i32 @Vec_PtrSize(ptr noundef %7)
  %9 = icmp slt i32 %6, %8
  br i1 %9, label %10, label %14

10:                                               ; preds = %5
  %11 = load ptr, ptr %2, align 8
  %12 = load i32, ptr %4, align 4
  %13 = call ptr @Vec_PtrEntry(ptr noundef %11, i32 noundef %12)
  store ptr %13, ptr %3, align 8
  br label %14

14:                                               ; preds = %10, %5
  %15 = phi i1 [ false, %5 ], [ true, %10 ]
  br i1 %15, label %16, label %26

16:                                               ; preds = %14
  %17 = load ptr, ptr %3, align 8
  %18 = icmp ne ptr %17, null
  br i1 %18, label %19, label %21

19:                                               ; preds = %16
  %20 = load ptr, ptr %3, align 8
  call void @free(ptr noundef %20) #11
  store ptr null, ptr %3, align 8
  br label %22

21:                                               ; preds = %16
  br label %22

22:                                               ; preds = %21, %19
  br label %23

23:                                               ; preds = %22
  %24 = load i32, ptr %4, align 4
  %25 = add nsw i32 %24, 1
  store i32 %25, ptr %4, align 4
  br label %5, !llvm.loop !7

26:                                               ; preds = %14
  %27 = load ptr, ptr %2, align 8
  call void @Vec_PtrFree(ptr noundef %27)
  ret void
}

; Function Attrs: nounwind uwtable
define void @Gia_ManTerDelete(ptr noundef %0) #0 {
  %2 = alloca ptr, align 8
  store ptr %0, ptr %2, align 8
  %3 = load ptr, ptr %2, align 8
  %4 = getelementptr inbounds %struct.Gia_ManTer_t_, ptr %3, i32 0, i32 3
  %5 = load ptr, ptr %4, align 8
  %6 = icmp ne ptr %5, null
  br i1 %6, label %7, label %11

7:                                                ; preds = %1
  %8 = load ptr, ptr %2, align 8
  %9 = getelementptr inbounds %struct.Gia_ManTer_t_, ptr %8, i32 0, i32 3
  %10 = load ptr, ptr %9, align 8
  call void @Gia_ManTerStatesFree(ptr noundef %10)
  br label %11

11:                                               ; preds = %7, %1
  %12 = load ptr, ptr %2, align 8
  %13 = getelementptr inbounds %struct.Gia_ManTer_t_, ptr %12, i32 0, i32 4
  %14 = load ptr, ptr %13, align 8
  %15 = icmp ne ptr %14, null
  br i1 %15, label %16, label %20

16:                                               ; preds = %11
  %17 = load ptr, ptr %2, align 8
  %18 = getelementptr inbounds %struct.Gia_ManTer_t_, ptr %17, i32 0, i32 4
  %19 = load ptr, ptr %18, align 8
  call void @Gia_ManTerStatesFree(ptr noundef %19)
  br label %20

20:                                               ; preds = %16, %11
  %21 = load ptr, ptr %2, align 8
  %22 = getelementptr inbounds %struct.Gia_ManTer_t_, ptr %21, i32 0, i32 0
  %23 = load ptr, ptr %22, align 8
  call void @Gia_ManStop(ptr noundef %23)
  %24 = load ptr, ptr %2, align 8
  %25 = getelementptr inbounds %struct.Gia_ManTer_t_, ptr %24, i32 0, i32 5
  %26 = load ptr, ptr %25, align 8
  call void @Vec_IntFree(ptr noundef %26)
  %27 = load ptr, ptr %2, align 8
  %28 = getelementptr inbounds %struct.Gia_ManTer_t_, ptr %27, i32 0, i32 6
  %29 = load ptr, ptr %28, align 8
  %30 = icmp ne ptr %29, null
  br i1 %30, label %31, label %37

31:                                               ; preds = %20
  %32 = load ptr, ptr %2, align 8
  %33 = getelementptr inbounds %struct.Gia_ManTer_t_, ptr %32, i32 0, i32 6
  %34 = load ptr, ptr %33, align 8
  call void @free(ptr noundef %34) #11
  %35 = load ptr, ptr %2, align 8
  %36 = getelementptr inbounds %struct.Gia_ManTer_t_, ptr %35, i32 0, i32 6
  store ptr null, ptr %36, align 8
  br label %38

37:                                               ; preds = %20
  br label %38

38:                                               ; preds = %37, %31
  %39 = load ptr, ptr %2, align 8
  %40 = getelementptr inbounds %struct.Gia_ManTer_t_, ptr %39, i32 0, i32 7
  %41 = load ptr, ptr %40, align 8
  %42 = icmp ne ptr %41, null
  br i1 %42, label %43, label %49

43:                                               ; preds = %38
  %44 = load ptr, ptr %2, align 8
  %45 = getelementptr inbounds %struct.Gia_ManTer_t_, ptr %44, i32 0, i32 7
  %46 = load ptr, ptr %45, align 8
  call void @free(ptr noundef %46) #11
  %47 = load ptr, ptr %2, align 8
  %48 = getelementptr inbounds %struct.Gia_ManTer_t_, ptr %47, i32 0, i32 7
  store ptr null, ptr %48, align 8
  br label %50

49:                                               ; preds = %38
  br label %50

50:                                               ; preds = %49, %43
  %51 = load ptr, ptr %2, align 8
  %52 = getelementptr inbounds %struct.Gia_ManTer_t_, ptr %51, i32 0, i32 8
  %53 = load ptr, ptr %52, align 8
  %54 = icmp ne ptr %53, null
  br i1 %54, label %55, label %61

55:                                               ; preds = %50
  %56 = load ptr, ptr %2, align 8
  %57 = getelementptr inbounds %struct.Gia_ManTer_t_, ptr %56, i32 0, i32 8
  %58 = load ptr, ptr %57, align 8
  call void @free(ptr noundef %58) #11
  %59 = load ptr, ptr %2, align 8
  %60 = getelementptr inbounds %struct.Gia_ManTer_t_, ptr %59, i32 0, i32 8
  store ptr null, ptr %60, align 8
  br label %62

61:                                               ; preds = %50
  br label %62

62:                                               ; preds = %61, %55
  %63 = load ptr, ptr %2, align 8
  %64 = getelementptr inbounds %struct.Gia_ManTer_t_, ptr %63, i32 0, i32 10
  %65 = load ptr, ptr %64, align 8
  %66 = icmp ne ptr %65, null
  br i1 %66, label %67, label %73

67:                                               ; preds = %62
  %68 = load ptr, ptr %2, align 8
  %69 = getelementptr inbounds %struct.Gia_ManTer_t_, ptr %68, i32 0, i32 10
  %70 = load ptr, ptr %69, align 8
  call void @free(ptr noundef %70) #11
  %71 = load ptr, ptr %2, align 8
  %72 = getelementptr inbounds %struct.Gia_ManTer_t_, ptr %71, i32 0, i32 10
  store ptr null, ptr %72, align 8
  br label %74

73:                                               ; preds = %62
  br label %74

74:                                               ; preds = %73, %67
  %75 = load ptr, ptr %2, align 8
  %76 = getelementptr inbounds %struct.Gia_ManTer_t_, ptr %75, i32 0, i32 11
  %77 = load ptr, ptr %76, align 8
  %78 = icmp ne ptr %77, null
  br i1 %78, label %79, label %85

79:                                               ; preds = %74
  %80 = load ptr, ptr %2, align 8
  %81 = getelementptr inbounds %struct.Gia_ManTer_t_, ptr %80, i32 0, i32 11
  %82 = load ptr, ptr %81, align 8
  call void @free(ptr noundef %82) #11
  %83 = load ptr, ptr %2, align 8
  %84 = getelementptr inbounds %struct.Gia_ManTer_t_, ptr %83, i32 0, i32 11
  store ptr null, ptr %84, align 8
  br label %86

85:                                               ; preds = %74
  br label %86

86:                                               ; preds = %85, %79
  %87 = load ptr, ptr %2, align 8
  %88 = getelementptr inbounds %struct.Gia_ManTer_t_, ptr %87, i32 0, i32 12
  %89 = load ptr, ptr %88, align 8
  %90 = icmp ne ptr %89, null
  br i1 %90, label %91, label %97

91:                                               ; preds = %86
  %92 = load ptr, ptr %2, align 8
  %93 = getelementptr inbounds %struct.Gia_ManTer_t_, ptr %92, i32 0, i32 12
  %94 = load ptr, ptr %93, align 8
  call void @free(ptr noundef %94) #11
  %95 = load ptr, ptr %2, align 8
  %96 = getelementptr inbounds %struct.Gia_ManTer_t_, ptr %95, i32 0, i32 12
  store ptr null, ptr %96, align 8
  br label %98

97:                                               ; preds = %86
  br label %98

98:                                               ; preds = %97, %91
  %99 = load ptr, ptr %2, align 8
  %100 = getelementptr inbounds %struct.Gia_ManTer_t_, ptr %99, i32 0, i32 13
  %101 = load ptr, ptr %100, align 8
  %102 = icmp ne ptr %101, null
  br i1 %102, label %103, label %109

103:                                              ; preds = %98
  %104 = load ptr, ptr %2, align 8
  %105 = getelementptr inbounds %struct.Gia_ManTer_t_, ptr %104, i32 0, i32 13
  %106 = load ptr, ptr %105, align 8
  call void @free(ptr noundef %106) #11
  %107 = load ptr, ptr %2, align 8
  %108 = getelementptr inbounds %struct.Gia_ManTer_t_, ptr %107, i32 0, i32 13
  store ptr null, ptr %108, align 8
  br label %110

109:                                              ; preds = %98
  br label %110

110:                                              ; preds = %109, %103
  %111 = load ptr, ptr %2, align 8
  %112 = icmp ne ptr %111, null
  br i1 %112, label %113, label %115

113:                                              ; preds = %110
  %114 = load ptr, ptr %2, align 8
  call void @free(ptr noundef %114) #11
  store ptr null, ptr %2, align 8
  br label %116

115:                                              ; preds = %110
  br label %116

116:                                              ; preds = %115, %113
  ret void
}