; Function Attrs: nounwind uwtable
define void @Gia_ManTerDelete(ptr noundef captures(none) %0) local_unnamed_addr #0 {
  %2 = getelementptr inbounds nuw i8, ptr %0, i64 16
  %3 = load ptr, ptr %2, align 8
  %.not = icmp eq ptr %3, null
  br i1 %.not, label %18, label %4

4:                                                ; preds = %1
  %5 = getelementptr i8, ptr %3, i64 4
  %.val9.i = load i32, ptr %5, align 4
  %6 = icmp sgt i32 %.val9.i, 0
  br i1 %6, label %.lr.ph.i, label %.critedge.i

.lr.ph.i:                                         ; preds = %4
  %7 = getelementptr i8, ptr %3, i64 8
  br label %8

8:                                                ; preds = %12, %.lr.ph.i
  %.val12.i = phi i32 [ %.val9.i, %.lr.ph.i ], [ %.val.i, %12 ]
  %indvars.iv.i = phi i64 [ 0, %.lr.ph.i ], [ %indvars.iv.next.i, %12 ]
  %.val8.i = load ptr, ptr %7, align 8
  %9 = getelementptr inbounds nuw ptr, ptr %.val8.i, i64 %indvars.iv.i
  %10 = load ptr, ptr %9, align 8
  %.not.i = icmp eq ptr %10, null
  br i1 %.not.i, label %12, label %11

11:                                               ; preds = %8
  tail call void @free(ptr noundef nonnull %10) #22
  %.val.pre.i = load i32, ptr %5, align 4
  br label %12

12:                                               ; preds = %11, %8
  %.val.i = phi i32 [ %.val.pre.i, %11 ], [ %.val12.i, %8 ]
  %indvars.iv.next.i = add nuw nsw i64 %indvars.iv.i, 1
  %13 = sext i32 %.val.i to i64
  %14 = icmp slt i64 %indvars.iv.next.i, %13
  br i1 %14, label %8, label %.critedge.i, !llvm.loop !7

.critedge.i:                                      ; preds = %12, %4
  %15 = getelementptr inbounds nuw i8, ptr %3, i64 8
  %16 = load ptr, ptr %15, align 8
  %.not.i.i = icmp eq ptr %16, null
  br i1 %.not.i.i, label %Gia_ManTerStatesFree.exit, label %17

17:                                               ; preds = %.critedge.i
  tail call void @free(ptr noundef nonnull %16) #22
  br label %Gia_ManTerStatesFree.exit

Gia_ManTerStatesFree.exit:                        ; preds = %.critedge.i, %17
  tail call void @free(ptr noundef nonnull %3) #22
  br label %18

18:                                               ; preds = %Gia_ManTerStatesFree.exit, %1
  %19 = getelementptr inbounds nuw i8, ptr %0, i64 24
  %20 = load ptr, ptr %19, align 8
  %.not37 = icmp eq ptr %20, null
  br i1 %.not37, label %35, label %21

21:                                               ; preds = %18
  %22 = getelementptr i8, ptr %20, i64 4
  %.val9.i45 = load i32, ptr %22, align 4
  %23 = icmp sgt i32 %.val9.i45, 0
  br i1 %23, label %.lr.ph.i48, label %.critedge.i46

.lr.ph.i48:                                       ; preds = %21
  %24 = getelementptr i8, ptr %20, i64 8
  br label %25

25:                                               ; preds = %29, %.lr.ph.i48
  %.val12.i49 = phi i32 [ %.val9.i45, %.lr.ph.i48 ], [ %.val.i54, %29 ]
  %indvars.iv.i50 = phi i64 [ 0, %.lr.ph.i48 ], [ %indvars.iv.next.i55, %29 ]
  %.val8.i51 = load ptr, ptr %24, align 8
  %26 = getelementptr inbounds nuw ptr, ptr %.val8.i51, i64 %indvars.iv.i50
  %27 = load ptr, ptr %26, align 8
  %.not.i52 = icmp eq ptr %27, null
  br i1 %.not.i52, label %29, label %28

28:                                               ; preds = %25
  tail call void @free(ptr noundef nonnull %27) #22
  %.val.pre.i53 = load i32, ptr %22, align 4
  br label %29

29:                                               ; preds = %28, %25
  %.val.i54 = phi i32 [ %.val.pre.i53, %28 ], [ %.val12.i49, %25 ]
  %indvars.iv.next.i55 = add nuw nsw i64 %indvars.iv.i50, 1
  %30 = sext i32 %.val.i54 to i64
  %31 = icmp slt i64 %indvars.iv.next.i55, %30
  br i1 %31, label %25, label %.critedge.i46, !llvm.loop !7

.critedge.i46:                                    ; preds = %29, %21
  %32 = getelementptr inbounds nuw i8, ptr %20, i64 8
  %33 = load ptr, ptr %32, align 8
  %.not.i.i47 = icmp eq ptr %33, null
  br i1 %.not.i.i47, label %Gia_ManTerStatesFree.exit56, label %34

34:                                               ; preds = %.critedge.i46
  tail call void @free(ptr noundef nonnull %33) #22
  br label %Gia_ManTerStatesFree.exit56

Gia_ManTerStatesFree.exit56:                      ; preds = %.critedge.i46, %34
  tail call void @free(ptr noundef nonnull %20) #22
  br label %35

35:                                               ; preds = %Gia_ManTerStatesFree.exit56, %18
  %36 = load ptr, ptr %0, align 8
  tail call void @Gia_ManStop(ptr noundef %36) #22
  %37 = getelementptr inbounds nuw i8, ptr %0, i64 32
  %38 = load ptr, ptr %37, align 8
  %39 = getelementptr inbounds nuw i8, ptr %38, i64 8
  %40 = load ptr, ptr %39, align 8
  %.not.i57 = icmp eq ptr %40, null
  br i1 %.not.i57, label %Vec_IntFree.exit, label %41

41:                                               ; preds = %35
  tail call void @free(ptr noundef nonnull %40) #22
  br label %Vec_IntFree.exit

Vec_IntFree.exit:                                 ; preds = %35, %41
  tail call void @free(ptr noundef nonnull %38) #22
  %42 = getelementptr inbounds nuw i8, ptr %0, i64 40
  %43 = load ptr, ptr %42, align 8
  %.not38 = icmp eq ptr %43, null
  br i1 %.not38, label %45, label %44

44:                                               ; preds = %Vec_IntFree.exit
  tail call void @free(ptr noundef nonnull %43) #22
  store ptr null, ptr %42, align 8
  br label %45

45:                                               ; preds = %Vec_IntFree.exit, %44
  %46 = getelementptr inbounds nuw i8, ptr %0, i64 48
  %47 = load ptr, ptr %46, align 8
  %.not39 = icmp eq ptr %47, null
  br i1 %.not39, label %49, label %48

48:                                               ; preds = %45
  tail call void @free(ptr noundef nonnull %47) #22
  store ptr null, ptr %46, align 8
  br label %49

49:                                               ; preds = %45, %48
  %50 = getelementptr inbounds nuw i8, ptr %0, i64 56
  %51 = load ptr, ptr %50, align 8
  %.not40 = icmp eq ptr %51, null
  br i1 %.not40, label %53, label %52

52:                                               ; preds = %49
  tail call void @free(ptr noundef nonnull %51) #22
  store ptr null, ptr %50, align 8
  br label %53

53:                                               ; preds = %49, %52
  %54 = getelementptr inbounds nuw i8, ptr %0, i64 72
  %55 = load ptr, ptr %54, align 8
  %.not41 = icmp eq ptr %55, null
  br i1 %.not41, label %57, label %56

56:                                               ; preds = %53
  tail call void @free(ptr noundef nonnull %55) #22
  store ptr null, ptr %54, align 8
  br label %57

57:                                               ; preds = %53, %56
  %58 = getelementptr inbounds nuw i8, ptr %0, i64 80
  %59 = load ptr, ptr %58, align 8
  %.not42 = icmp eq ptr %59, null
  br i1 %.not42, label %61, label %60

60:                                               ; preds = %57
  tail call void @free(ptr noundef nonnull %59) #22
  store ptr null, ptr %58, align 8
  br label %61

61:                                               ; preds = %57, %60
  %62 = getelementptr inbounds nuw i8, ptr %0, i64 88
  %63 = load ptr, ptr %62, align 8
  %.not43 = icmp eq ptr %63, null
  br i1 %.not43, label %65, label %64

64:                                               ; preds = %61
  tail call void @free(ptr noundef nonnull %63) #22
  store ptr null, ptr %62, align 8
  br label %65

65:                                               ; preds = %61, %64
  %66 = getelementptr inbounds nuw i8, ptr %0, i64 96
  %67 = load ptr, ptr %66, align 8
  %.not44 = icmp eq ptr %67, null
  br i1 %.not44, label %69, label %68

68:                                               ; preds = %65
  tail call void @free(ptr noundef nonnull %67) #22
  br label %69

69:                                               ; preds = %68, %65
  tail call void @free(ptr noundef nonnull %0) #22
  ret void
}